target datalayout = "e-m:e-p270:32:32-p271:32:32-p272:64:64-i64:64-i128:128-f80:128-n8:16:32:64-S128"
target triple = "x86_64-pc-linux-gnu"

@proto_register_sapdiag.ett = internal global [1 x ptr] [ptr @ett_sapdiag], align 8
@.str.657 = private unnamed_addr constant [18 x i8] c"SAP Diag Protocol\00", align 1
@.str.658 = private unnamed_addr constant [8 x i8] c"SAPDIAG\00", align 1
@.str.659 = private unnamed_addr constant [8 x i8] c"sapdiag\00", align 1
@proto_sapdiag = internal global i32 0, align 4
@global_sapdiag_port_range = internal global ptr null, align 8
@.str.660 = private unnamed_addr constant [5 x i8] c"3200\00", align 1
@.str.661 = private unnamed_addr constant [10 x i8] c"tcp_ports\00", align 1
@.str.662 = private unnamed_addr constant [35 x i8] c"SAP Diag Protocol TCP port numbers\00", align 1
@.str.663 = private unnamed_addr constant [55 x i8] c"Port numbers used for SAP Diag Protocol (default 3200)\00", align 1
@.str.664 = private unnamed_addr constant [15 x i8] c"rfc_dissection\00", align 1
@.str.665 = private unnamed_addr constant [31 x i8] c"Dissect embedded SAP RFC calls\00", align 1
@.str.666 = private unnamed_addr constant [97 x i8] c"Whether the SAP Diag Protocol dissector should call the SAP RFC dissector for embedded RFC calls\00", align 1
@global_sapdiag_rfc_dissection = internal global i8 1, align 1
@.str.667 = private unnamed_addr constant [15 x i8] c"snc_dissection\00", align 1
@.str.668 = private unnamed_addr constant [23 x i8] c"Dissect SAP SNC frames\00", align 1
@.str.669 = private unnamed_addr constant [89 x i8] c"Whether the SAP Diag Protocol dissector should call the SAP SNC dissector for SNC frames\00", align 1
@global_sapdiag_snc_dissection = internal global i8 1, align 1
@.str.670 = private unnamed_addr constant [24 x i8] c"highlight_unknown_items\00", align 1
@.str.671 = private unnamed_addr constant [33 x i8] c"Highlight unknown SAP Diag Items\00", align 1
@.str.672 = private unnamed_addr constant [134 x i8] c"Whether the SAP Diag Protocol dissector should highlight unknown SAP Diag item (might be noise and generate a lot of expert warnings)\00", align 1
@global_sapdiag_highlight_items = internal global i8 1, align 1

; Function Attrs: null_pointer_is_valid sspstrong uwtable
define hidden void @proto_register_sapdiag() #0 {
  %1 = alloca ptr, align 8
  %2 = alloca ptr, align 8
  call void @llvm.lifetime.start.p0(i64 8, ptr %1) #3
  call void @llvm.lifetime.start.p0(i64 8, ptr %2) #3
  %3 = call i32 @proto_register_protocol(ptr noundef @.str.657, ptr noundef @.str.658, ptr noundef @.str.659)
  store i32 %3, ptr @proto_sapdiag, align 4
  %4 = load i32, ptr @proto_sapdiag, align 4
  call void @proto_register_field_array(i32 noundef %4, ptr noundef @proto_register_sapdiag.hf, i32 noundef 321)
  call void @proto_register_subtree_array(ptr noundef @proto_register_sapdiag.ett, i32 noundef 1)
  %5 = load i32, ptr @proto_sapdiag, align 4
  %6 = call ptr @expert_register_protocol(i32 noundef %5)
  store ptr %6, ptr %2, align 8
  %7 = load ptr, ptr %2, align 8
  call void @expert_register_field_array(ptr noundef %7, ptr noundef @proto_register_sapdiag.ei, i32 noundef 10)
  %8 = load i32, ptr @proto_sapdiag, align 4
  %9 = call ptr @register_dissector(ptr noundef @.str.659, ptr noundef @dissect_sapdiag, i32 noundef %8)
  %10 = load i32, ptr @proto_sapdiag, align 4
  %11 = call ptr @prefs_register_protocol(i32 noundef %10, ptr noundef @proto_reg_handoff_sapdiag)
  store ptr %11, ptr %1, align 8
  %12 = call ptr @wmem_epan_scope()
  %13 = call i32 @range_convert_str(ptr noundef %12, ptr noundef @global_sapdiag_port_range, ptr noundef @.str.660, i32 noundef 65535)
  %14 = load ptr, ptr %1, align 8
  call void @prefs_register_range_preference(ptr noundef %14, ptr noundef @.str.661, ptr noundef @.str.662, ptr noundef @.str.663, ptr noundef @global_sapdiag_port_range, i32 noundef 65535)
  %15 = load ptr, ptr %1, align 8
  call void @prefs_register_bool_preference(ptr noundef %15, ptr noundef @.str.664, ptr noundef @.str.665, ptr noundef @.str.666, ptr noundef @global_sapdiag_rfc_dissection)
  %16 = load ptr, ptr %1, align 8
  call void @prefs_register_bool_preference(ptr noundef %16, ptr noundef @.str.667, ptr noundef @.str.668, ptr noundef @.str.669, ptr noundef @global_sapdiag_snc_dissection)
  %17 = load ptr, ptr %1, align 8
  call void @prefs_register_bool_preference(ptr noundef %17, ptr noundef @.str.670, ptr noundef @.str.671, ptr noundef @.str.672, ptr noundef @global_sapdiag_highlight_items)
  call void @llvm.lifetime.end.p0(i64 8, ptr %2) #3
  call void @llvm.lifetime.end.p0(i64 8, ptr %1) #3
  ret void
}