; Function Attrs: null_pointer_is_valid sspstrong uwtable
define hidden void @proto_register_sapdiag() local_unnamed_addr #0 {
  %1 = tail call i32 @proto_register_protocol(ptr noundef nonnull @.str.657, ptr noundef nonnull @.str.658, ptr noundef nonnull @.str.659)
  store i32 %1, ptr @proto_sapdiag, align 4
  tail call void @proto_register_field_array(i32 noundef %1, ptr noundef nonnull @proto_register_sapdiag.hf, i32 noundef 321)
  tail call void @proto_register_subtree_array(ptr noundef nonnull @proto_register_sapdiag.ett, i32 noundef 1)
  %2 = load i32, ptr @proto_sapdiag, align 4
  %3 = tail call ptr @expert_register_protocol(i32 noundef %2)
  tail call void @expert_register_field_array(ptr noundef %3, ptr noundef nonnull @proto_register_sapdiag.ei, i32 noundef 10)
  %4 = load i32, ptr @proto_sapdiag, align 4
  %5 = tail call ptr @register_dissector(ptr noundef nonnull @.str.659, ptr noundef nonnull @dissect_sapdiag, i32 noundef %4)
  %6 = load i32, ptr @proto_sapdiag, align 4
  %7 = tail call ptr @prefs_register_protocol(i32 noundef %6, ptr noundef nonnull @proto_reg_handoff_sapdiag)
  %8 = tail call ptr @wmem_epan_scope()
  %9 = tail call i32 @range_convert_str(ptr noundef %8, ptr noundef nonnull @global_sapdiag_port_range, ptr noundef nonnull @.str.660, i32 noundef 65535)
  tail call void @prefs_register_range_preference(ptr noundef %7, ptr noundef nonnull @.str.661, ptr noundef nonnull @.str.662, ptr noundef nonnull @.str.663, ptr noundef nonnull @global_sapdiag_port_range, i32 noundef 65535)
  tail call void @prefs_register_bool_preference(ptr noundef %7, ptr noundef nonnull @.str.664, ptr noundef nonnull @.str.665, ptr noundef nonnull @.str.666, ptr noundef nonnull @global_sapdiag_rfc_dissection)
  tail call void @prefs_register_bool_preference(ptr noundef %7, ptr noundef nonnull @.str.667, ptr noundef nonnull @.str.668, ptr noundef nonnull @.str.669, ptr noundef nonnull @global_sapdiag_snc_dissection)
  tail call void @prefs_register_bool_preference(ptr noundef %7, ptr noundef nonnull @.str.670, ptr noundef nonnull @.str.671, ptr noundef nonnull @.str.672, ptr noundef nonnull @global_sapdiag_highlight_items)
  ret void
}